; Function Attrs: nounwind uwtable
define void @php_stream_notification_free(ptr noundef %0) local_unnamed_addr #2 {
  %2 = getelementptr inbounds i8, ptr %0, i64 8
  %3 = load ptr, ptr %2, align 8
  %.not = icmp eq ptr %3, null
  br i1 %.not, label %5, label %4

4:                                                ; preds = %1
  tail call void %3(ptr noundef nonnull %0) #27
  br label %5

5:                                                ; preds = %4, %1
  tail call void @_efree(ptr noundef nonnull %0) #27
  ret void
}